target datalayout = "e-m:e-p270:32:32-p271:32:32-p272:64:64-i64:64-i128:128-f80:128-n8:16:32:64-S128"
target triple = "x86_64-pc-linux-gnu"

@.str.14 = private unnamed_addr constant [3 x i8] c"!=\00", align 1
@.str.45 = private unnamed_addr constant [7 x i8] c"memory\00", align 1

; Function Attrs: nounwind uwtable
define i32 @test_mem_ne(ptr noundef %0, i32 noundef %1, ptr noundef %2, ptr noundef %3, ptr noundef %4, i64 noundef %5, ptr noundef %6, i64 noundef %7) #0 {
  %9 = alloca i32, align 4
  %10 = alloca ptr, align 8
  %11 = alloca i32, align 4
  %12 = alloca ptr, align 8
  %13 = alloca ptr, align 8
  %14 = alloca ptr, align 8
  %15 = alloca i64, align 8
  %16 = alloca ptr, align 8
  %17 = alloca i64, align 8
  store ptr %0, ptr %10, align 8, !tbaa !3
  store i32 %1, ptr %11, align 4, !tbaa !8
  store ptr %2, ptr %12, align 8, !tbaa !3
  store ptr %3, ptr %13, align 8, !tbaa !3
  store ptr %4, ptr %14, align 8, !tbaa !17
  store i64 %5, ptr %15, align 8, !tbaa !13
  store ptr %6, ptr %16, align 8, !tbaa !17
  store i64 %7, ptr %17, align 8, !tbaa !13
  %18 = load ptr, ptr %14, align 8, !tbaa !17
  %19 = icmp eq ptr %18, null
  %20 = zext i1 %19 to i32
  %21 = load ptr, ptr %16, align 8, !tbaa !17
  %22 = icmp eq ptr %21, null
  %23 = zext i1 %22 to i32
  %24 = xor i32 %20, %23
  %25 = icmp ne i32 %24, 0
  br i1 %25, label %26, label %27

26:                                               ; preds = %8
  store i32 1, ptr %9, align 4
  br label %51

27:                                               ; preds = %8
  %28 = load i64, ptr %15, align 8, !tbaa !13
  %29 = load i64, ptr %17, align 8, !tbaa !13
  %30 = icmp ne i64 %28, %29
  br i1 %30, label %31, label %32

31:                                               ; preds = %27
  store i32 1, ptr %9, align 4
  br label %51

32:                                               ; preds = %27
  %33 = load ptr, ptr %14, align 8, !tbaa !17
  %34 = icmp eq ptr %33, null
  br i1 %34, label %41, label %35

35:                                               ; preds = %32
  %36 = load ptr, ptr %14, align 8, !tbaa !17
  %37 = load ptr, ptr %16, align 8, !tbaa !17
  %38 = load i64, ptr %15, align 8, !tbaa !13
  %39 = call i32 @memcmp(ptr noundef %36, ptr noundef %37, i64 noundef %38) #9
  %40 = icmp eq i32 %39, 0
  br i1 %40, label %41, label %50

41:                                               ; preds = %35, %32
  %42 = load ptr, ptr %10, align 8, !tbaa !3
  %43 = load i32, ptr %11, align 4, !tbaa !8
  %44 = load ptr, ptr %12, align 8, !tbaa !3
  %45 = load ptr, ptr %13, align 8, !tbaa !3
  %46 = load ptr, ptr %14, align 8, !tbaa !17
  %47 = load i64, ptr %15, align 8, !tbaa !13
  %48 = load ptr, ptr %16, align 8, !tbaa !17
  %49 = load i64, ptr %17, align 8, !tbaa !13
  call void @test_fail_memory_message(ptr noundef null, ptr noundef %42, i32 noundef %43, ptr noundef @.str.45, ptr noundef %44, ptr noundef %45, ptr noundef @.str.14, ptr noundef %46, i64 noundef %47, ptr noundef %48, i64 noundef %49)
  store i32 0, ptr %9, align 4
  br label %51

50:                                               ; preds = %35
  store i32 1, ptr %9, align 4
  br label %51

51:                                               ; preds = %50, %41, %31, %26
  %52 = load i32, ptr %9, align 4
  ret i32 %52
}