; Function Attrs: nounwind uwtable
define range(i32 0, 2) i32 @test_mem_ne(ptr noundef %0, i32 noundef %1, ptr noundef %2, ptr noundef %3, ptr noundef %4, i64 noundef %5, ptr noundef %6, i64 noundef %7) local_unnamed_addr #0 {
  %9 = icmp eq ptr %4, null
  %10 = icmp ne ptr %6, null
  %.not19 = xor i1 %9, %10
  %.not = icmp eq i64 %5, %7
  %or.cond = and i1 %.not19, %.not
  br i1 %or.cond, label %11, label %15

11:                                               ; preds = %8
  br i1 %9, label %14, label %12

12:                                               ; preds = %11
  %bcmp = tail call i32 @bcmp(ptr nonnull %4, ptr %6, i64 %5)
  %13 = icmp eq i32 %bcmp, 0
  br i1 %13, label %14, label %15

14:                                               ; preds = %12, %11
  tail call void @test_fail_memory_message(ptr noundef null, ptr noundef %0, i32 noundef %1, ptr noundef nonnull @.str.45, ptr noundef %2, ptr noundef %3, ptr noundef nonnull @.str.14, ptr noundef %4, i64 noundef %5, ptr noundef %6, i64 noundef %5) #8
  br label %15

15:                                               ; preds = %12, %8, %14
  %.0 = phi i32 [ 0, %14 ], [ 1, %8 ], [ 1, %12 ]
  ret i32 %.0
}